target datalayout = "e-m:e-p270:32:32-p271:32:32-p272:64:64-i64:64-i128:128-f80:128-n8:16:32:64-S128"
target triple = "x86_64-pc-linux-gnu"

%struct.Amap_Man_t_ = type { ptr, ptr, float, float, i32, i32, ptr, ptr, ptr, ptr, ptr, ptr, ptr, ptr, [7 x i32], i32, i32, i32, ptr, ptr, ptr, ptr, ptr, ptr, ptr, ptr, i32, i32, i32, i32 }
%struct.Vec_Ptr_t_ = type { i32, i32, ptr }
%struct.Vec_Int_t_ = type { i32, i32, ptr }

; Function Attrs: inlinehint nounwind uwtable
define internal void @Vec_IntFree(ptr noundef %0) #4 {
  %2 = alloca ptr, align 8
  store ptr %0, ptr %2, align 8, !tbaa !40
  %3 = load ptr, ptr %2, align 8, !tbaa !40
  %4 = getelementptr inbounds nuw %struct.Vec_Int_t_, ptr %3, i32 0, i32 2
  %5 = load ptr, ptr %4, align 8, !tbaa !44
  %6 = icmp ne ptr %5, null
  br i1 %6, label %7, label %13

7:                                                ; preds = %1
  %8 = load ptr, ptr %2, align 8, !tbaa !40
  %9 = getelementptr inbounds nuw %struct.Vec_Int_t_, ptr %8, i32 0, i32 2
  %10 = load ptr, ptr %9, align 8, !tbaa !44
  call void @free(ptr noundef %10) #7
  %11 = load ptr, ptr %2, align 8, !tbaa !40
  %12 = getelementptr inbounds nuw %struct.Vec_Int_t_, ptr %11, i32 0, i32 2
  store ptr null, ptr %12, align 8, !tbaa !44
  br label %14

13:                                               ; preds = %1
  br label %14

14:                                               ; preds = %13, %7
  %15 = load ptr, ptr %2, align 8, !tbaa !40
  %16 = icmp ne ptr %15, null
  br i1 %16, label %17, label %19

17:                                               ; preds = %14
  %18 = load ptr, ptr %2, align 8, !tbaa !40
  call void @free(ptr noundef %18) #7
  store ptr null, ptr %2, align 8, !tbaa !40
  br label %20

19:                                               ; preds = %14
  br label %20

20:                                               ; preds = %19, %17
  ret void
}

; Function Attrs: inlinehint nounwind uwtable
define internal void @Vec_PtrFree(ptr noundef %0) #4 {
  %2 = alloca ptr, align 8
  store ptr %0, ptr %2, align 8, !tbaa !35
  %3 = load ptr, ptr %2, align 8, !tbaa !35
  %4 = getelementptr inbounds nuw %struct.Vec_Ptr_t_, ptr %3, i32 0, i32 2
  %5 = load ptr, ptr %4, align 8, !tbaa !39
  %6 = icmp ne ptr %5, null
  br i1 %6, label %7, label %13

7:                                                ; preds = %1
  %8 = load ptr, ptr %2, align 8, !tbaa !35
  %9 = getelementptr inbounds nuw %struct.Vec_Ptr_t_, ptr %8, i32 0, i32 2
  %10 = load ptr, ptr %9, align 8, !tbaa !39
  call void @free(ptr noundef %10) #7
  %11 = load ptr, ptr %2, align 8, !tbaa !35
  %12 = getelementptr inbounds nuw %struct.Vec_Ptr_t_, ptr %11, i32 0, i32 2
  store ptr null, ptr %12, align 8, !tbaa !39
  br label %14

13:                                               ; preds = %1
  br label %14

14:                                               ; preds = %13, %7
  %15 = load ptr, ptr %2, align 8, !tbaa !35
  %16 = icmp ne ptr %15, null
  br i1 %16, label %17, label %19

17:                                               ; preds = %14
  %18 = load ptr, ptr %2, align 8, !tbaa !35
  call void @free(ptr noundef %18) #7
  store ptr null, ptr %2, align 8, !tbaa !35
  br label %20

19:                                               ; preds = %14
  br label %20

20:                                               ; preds = %19, %17
  ret void
}

; Function Attrs: nounwind uwtable
define void @Amap_ManStop(ptr noundef %0) #0 {
  %2 = alloca ptr, align 8
  store ptr %0, ptr %2, align 8, !tbaa !7
  %3 = load ptr, ptr %2, align 8, !tbaa !7
  %4 = getelementptr inbounds nuw %struct.Amap_Man_t_, ptr %3, i32 0, i32 6
  %5 = load ptr, ptr %4, align 8, !tbaa !23
  call void @Vec_PtrFree(ptr noundef %5)
  %6 = load ptr, ptr %2, align 8, !tbaa !7
  %7 = getelementptr inbounds nuw %struct.Amap_Man_t_, ptr %6, i32 0, i32 7
  %8 = load ptr, ptr %7, align 8, !tbaa !24
  call void @Vec_PtrFree(ptr noundef %8)
  %9 = load ptr, ptr %2, align 8, !tbaa !7
  %10 = getelementptr inbounds nuw %struct.Amap_Man_t_, ptr %9, i32 0, i32 8
  %11 = load ptr, ptr %10, align 8, !tbaa !25
  call void @Vec_PtrFree(ptr noundef %11)
  %12 = load ptr, ptr %2, align 8, !tbaa !7
  %13 = getelementptr inbounds nuw %struct.Amap_Man_t_, ptr %12, i32 0, i32 22
  %14 = load ptr, ptr %13, align 8, !tbaa !27
  call void @Vec_PtrFree(ptr noundef %14)
  %15 = load ptr, ptr %2, align 8, !tbaa !7
  %16 = getelementptr inbounds nuw %struct.Amap_Man_t_, ptr %15, i32 0, i32 23
  %17 = load ptr, ptr %16, align 8, !tbaa !28
  call void @Vec_PtrFree(ptr noundef %17)
  %18 = load ptr, ptr %2, align 8, !tbaa !7
  %19 = getelementptr inbounds nuw %struct.Amap_Man_t_, ptr %18, i32 0, i32 24
  %20 = load ptr, ptr %19, align 8, !tbaa !29
  call void @Vec_PtrFree(ptr noundef %20)
  %21 = load ptr, ptr %2, align 8, !tbaa !7
  %22 = getelementptr inbounds nuw %struct.Amap_Man_t_, ptr %21, i32 0, i32 25
  %23 = load ptr, ptr %22, align 8, !tbaa !30
  call void @Vec_PtrFree(ptr noundef %23)
  %24 = load ptr, ptr %2, align 8, !tbaa !7
  %25 = getelementptr inbounds nuw %struct.Amap_Man_t_, ptr %24, i32 0, i32 18
  %26 = load ptr, ptr %25, align 8, !tbaa !26
  call void @Vec_IntFree(ptr noundef %26)
  %27 = load ptr, ptr %2, align 8, !tbaa !7
  %28 = getelementptr inbounds nuw %struct.Amap_Man_t_, ptr %27, i32 0, i32 9
  %29 = load ptr, ptr %28, align 8, !tbaa !31
  call void @Aig_MmFixedStop(ptr noundef %29, i32 noundef 0)
  %30 = load ptr, ptr %2, align 8, !tbaa !7
  %31 = getelementptr inbounds nuw %struct.Amap_Man_t_, ptr %30, i32 0, i32 10
  %32 = load ptr, ptr %31, align 8, !tbaa !32
  call void @Aig_MmFlexStop(ptr noundef %32, i32 noundef 0)
  %33 = load ptr, ptr %2, align 8, !tbaa !7
  %34 = getelementptr inbounds nuw %struct.Amap_Man_t_, ptr %33, i32 0, i32 11
  %35 = load ptr, ptr %34, align 8, !tbaa !33
  call void @Aig_MmFlexStop(ptr noundef %35, i32 noundef 0)
  %36 = load ptr, ptr %2, align 8, !tbaa !7
  %37 = getelementptr inbounds nuw %struct.Amap_Man_t_, ptr %36, i32 0, i32 12
  %38 = load ptr, ptr %37, align 8, !tbaa !34
  call void @Aig_MmFlexStop(ptr noundef %38, i32 noundef 0)
  %39 = load ptr, ptr %2, align 8, !tbaa !7
  %40 = getelementptr inbounds nuw %struct.Amap_Man_t_, ptr %39, i32 0, i32 19
  %41 = load ptr, ptr %40, align 8, !tbaa !45
  %42 = icmp ne ptr %41, null
  br i1 %42, label %43, label %49

43:                                               ; preds = %1
  %44 = load ptr, ptr %2, align 8, !tbaa !7
  %45 = getelementptr inbounds nuw %struct.Amap_Man_t_, ptr %44, i32 0, i32 19
  %46 = load ptr, ptr %45, align 8, !tbaa !45
  call void @free(ptr noundef %46) #7
  %47 = load ptr, ptr %2, align 8, !tbaa !7
  %48 = getelementptr inbounds nuw %struct.Amap_Man_t_, ptr %47, i32 0, i32 19
  store ptr null, ptr %48, align 8, !tbaa !45
  br label %50

49:                                               ; preds = %1
  br label %50

50:                                               ; preds = %49, %43
  %51 = load ptr, ptr %2, align 8, !tbaa !7
  %52 = getelementptr inbounds nuw %struct.Amap_Man_t_, ptr %51, i32 0, i32 20
  %53 = load ptr, ptr %52, align 8, !tbaa !46
  %54 = icmp ne ptr %53, null
  br i1 %54, label %55, label %61

55:                                               ; preds = %50
  %56 = load ptr, ptr %2, align 8, !tbaa !7
  %57 = getelementptr inbounds nuw %struct.Amap_Man_t_, ptr %56, i32 0, i32 20
  %58 = load ptr, ptr %57, align 8, !tbaa !46
  call void @free(ptr noundef %58) #7
  %59 = load ptr, ptr %2, align 8, !tbaa !7
  %60 = getelementptr inbounds nuw %struct.Amap_Man_t_, ptr %59, i32 0, i32 20
  store ptr null, ptr %60, align 8, !tbaa !46
  br label %62

61:                                               ; preds = %50
  br label %62

62:                                               ; preds = %61, %55
  %63 = load ptr, ptr %2, align 8, !tbaa !7
  %64 = getelementptr inbounds nuw %struct.Amap_Man_t_, ptr %63, i32 0, i32 21
  %65 = load ptr, ptr %64, align 8, !tbaa !47
  %66 = icmp ne ptr %65, null
  br i1 %66, label %67, label %73

67:                                               ; preds = %62
  %68 = load ptr, ptr %2, align 8, !tbaa !7
  %69 = getelementptr inbounds nuw %struct.Amap_Man_t_, ptr %68, i32 0, i32 21
  %70 = load ptr, ptr %69, align 8, !tbaa !47
  call void @free(ptr noundef %70) #7
  %71 = load ptr, ptr %2, align 8, !tbaa !7
  %72 = getelementptr inbounds nuw %struct.Amap_Man_t_, ptr %71, i32 0, i32 21
  store ptr null, ptr %72, align 8, !tbaa !47
  br label %74

73:                                               ; preds = %62
  br label %74

74:                                               ; preds = %73, %67
  %75 = load ptr, ptr %2, align 8, !tbaa !7
  %76 = icmp ne ptr %75, null
  br i1 %76, label %77, label %79

77:                                               ; preds = %74
  %78 = load ptr, ptr %2, align 8, !tbaa !7
  call void @free(ptr noundef %78) #7
  store ptr null, ptr %2, align 8, !tbaa !7
  br label %80

79:                                               ; preds = %74
  br label %80

80:                                               ; preds = %79, %77
  ret void
}