; Function Attrs: nounwind uwtable
define void @Amap_ManStop(ptr noundef captures(none) %0) local_unnamed_addr #0 {
  %2 = getelementptr inbounds nuw i8, ptr %0, i64 32
  %3 = load ptr, ptr %2, align 8, !tbaa !24
  %4 = getelementptr inbounds nuw i8, ptr %3, i64 8
  %5 = load ptr, ptr %4, align 8, !tbaa !23
  %.not.i = icmp eq ptr %5, null
  br i1 %.not.i, label %Vec_PtrFree.exit, label %6

6:                                                ; preds = %1
  tail call void @free(ptr noundef nonnull %5) #6
  br label %Vec_PtrFree.exit

Vec_PtrFree.exit:                                 ; preds = %1, %6
  tail call void @free(ptr noundef nonnull %3) #6
  %7 = getelementptr inbounds nuw i8, ptr %0, i64 40
  %8 = load ptr, ptr %7, align 8, !tbaa !25
  %9 = getelementptr inbounds nuw i8, ptr %8, i64 8
  %10 = load ptr, ptr %9, align 8, !tbaa !23
  %.not.i29 = icmp eq ptr %10, null
  br i1 %.not.i29, label %Vec_PtrFree.exit30, label %11

11:                                               ; preds = %Vec_PtrFree.exit
  tail call void @free(ptr noundef nonnull %10) #6
  br label %Vec_PtrFree.exit30

Vec_PtrFree.exit30:                               ; preds = %Vec_PtrFree.exit, %11
  tail call void @free(ptr noundef nonnull %8) #6
  %12 = getelementptr inbounds nuw i8, ptr %0, i64 48
  %13 = load ptr, ptr %12, align 8, !tbaa !26
  %14 = getelementptr inbounds nuw i8, ptr %13, i64 8
  %15 = load ptr, ptr %14, align 8, !tbaa !23
  %.not.i31 = icmp eq ptr %15, null
  br i1 %.not.i31, label %Vec_PtrFree.exit32, label %16

16:                                               ; preds = %Vec_PtrFree.exit30
  tail call void @free(ptr noundef nonnull %15) #6
  br label %Vec_PtrFree.exit32

Vec_PtrFree.exit32:                               ; preds = %Vec_PtrFree.exit30, %16
  tail call void @free(ptr noundef nonnull %13) #6
  %17 = getelementptr inbounds nuw i8, ptr %0, i64 168
  %18 = load ptr, ptr %17, align 8, !tbaa !32
  %19 = getelementptr inbounds nuw i8, ptr %18, i64 8
  %20 = load ptr, ptr %19, align 8, !tbaa !23
  %.not.i33 = icmp eq ptr %20, null
  br i1 %.not.i33, label %Vec_PtrFree.exit34, label %21

21:                                               ; preds = %Vec_PtrFree.exit32
  tail call void @free(ptr noundef nonnull %20) #6
  br label %Vec_PtrFree.exit34

Vec_PtrFree.exit34:                               ; preds = %Vec_PtrFree.exit32, %21
  tail call void @free(ptr noundef nonnull %18) #6
  %22 = getelementptr inbounds nuw i8, ptr %0, i64 176
  %23 = load ptr, ptr %22, align 8, !tbaa !33
  %24 = getelementptr inbounds nuw i8, ptr %23, i64 8
  %25 = load ptr, ptr %24, align 8, !tbaa !23
  %.not.i35 = icmp eq ptr %25, null
  br i1 %.not.i35, label %Vec_PtrFree.exit36, label %26

26:                                               ; preds = %Vec_PtrFree.exit34
  tail call void @free(ptr noundef nonnull %25) #6
  br label %Vec_PtrFree.exit36

Vec_PtrFree.exit36:                               ; preds = %Vec_PtrFree.exit34, %26
  tail call void @free(ptr noundef nonnull %23) #6
  %27 = getelementptr inbounds nuw i8, ptr %0, i64 184
  %28 = load ptr, ptr %27, align 8, !tbaa !34
  %29 = getelementptr inbounds nuw i8, ptr %28, i64 8
  %30 = load ptr, ptr %29, align 8, !tbaa !23
  %.not.i37 = icmp eq ptr %30, null
  br i1 %.not.i37, label %Vec_PtrFree.exit38, label %31

31:                                               ; preds = %Vec_PtrFree.exit36
  tail call void @free(ptr noundef nonnull %30) #6
  br label %Vec_PtrFree.exit38

Vec_PtrFree.exit38:                               ; preds = %Vec_PtrFree.exit36, %31
  tail call void @free(ptr noundef nonnull %28) #6
  %32 = getelementptr inbounds nuw i8, ptr %0, i64 192
  %33 = load ptr, ptr %32, align 8, !tbaa !35
  %34 = getelementptr inbounds nuw i8, ptr %33, i64 8
  %35 = load ptr, ptr %34, align 8, !tbaa !23
  %.not.i39 = icmp eq ptr %35, null
  br i1 %.not.i39, label %Vec_PtrFree.exit40, label %36

36:                                               ; preds = %Vec_PtrFree.exit38
  tail call void @free(ptr noundef nonnull %35) #6
  br label %Vec_PtrFree.exit40

Vec_PtrFree.exit40:                               ; preds = %Vec_PtrFree.exit38, %36
  tail call void @free(ptr noundef nonnull %33) #6
  %37 = getelementptr inbounds nuw i8, ptr %0, i64 136
  %38 = load ptr, ptr %37, align 8, !tbaa !31
  %39 = getelementptr inbounds nuw i8, ptr %38, i64 8
  %40 = load ptr, ptr %39, align 8, !tbaa !30
  %.not.i41 = icmp eq ptr %40, null
  br i1 %.not.i41, label %Vec_IntFree.exit, label %41

41:                                               ; preds = %Vec_PtrFree.exit40
  tail call void @free(ptr noundef nonnull %40) #6
  br label %Vec_IntFree.exit

Vec_IntFree.exit:                                 ; preds = %Vec_PtrFree.exit40, %41
  tail call void @free(ptr noundef nonnull %38) #6
  %42 = getelementptr inbounds nuw i8, ptr %0, i64 56
  %43 = load ptr, ptr %42, align 8, !tbaa !36
  tail call void @Aig_MmFixedStop(ptr noundef %43, i32 noundef 0) #6
  %44 = getelementptr inbounds nuw i8, ptr %0, i64 64
  %45 = load ptr, ptr %44, align 8, !tbaa !37
  tail call void @Aig_MmFlexStop(ptr noundef %45, i32 noundef 0) #6
  %46 = getelementptr inbounds nuw i8, ptr %0, i64 72
  %47 = load ptr, ptr %46, align 8, !tbaa !38
  tail call void @Aig_MmFlexStop(ptr noundef %47, i32 noundef 0) #6
  %48 = getelementptr inbounds nuw i8, ptr %0, i64 80
  %49 = load ptr, ptr %48, align 8, !tbaa !39
  tail call void @Aig_MmFlexStop(ptr noundef %49, i32 noundef 0) #6
  %50 = getelementptr inbounds nuw i8, ptr %0, i64 144
  %51 = load ptr, ptr %50, align 8, !tbaa !40
  %.not = icmp eq ptr %51, null
  br i1 %.not, label %53, label %52

52:                                               ; preds = %Vec_IntFree.exit
  tail call void @free(ptr noundef nonnull %51) #6
  store ptr null, ptr %50, align 8, !tbaa !40
  br label %53

53:                                               ; preds = %Vec_IntFree.exit, %52
  %54 = getelementptr inbounds nuw i8, ptr %0, i64 152
  %55 = load ptr, ptr %54, align 8, !tbaa !41
  %.not26 = icmp eq ptr %55, null
  br i1 %.not26, label %57, label %56

56:                                               ; preds = %53
  tail call void @free(ptr noundef nonnull %55) #6
  store ptr null, ptr %54, align 8, !tbaa !41
  br label %57

57:                                               ; preds = %53, %56
  %58 = getelementptr inbounds nuw i8, ptr %0, i64 160
  %59 = load ptr, ptr %58, align 8, !tbaa !42
  %.not27 = icmp eq ptr %59, null
  br i1 %.not27, label %61, label %60

60:                                               ; preds = %57
  tail call void @free(ptr noundef nonnull %59) #6
  br label %61

61:                                               ; preds = %57, %60
  tail call void @free(ptr noundef nonnull %0) #6
  ret void
}